target datalayout = "e-m:e-p270:32:32-p271:32:32-p272:64:64-i64:64-i128:128-f80:128-n8:16:32:64-S128"
target triple = "x86_64-pc-linux-gnu"

%struct._zend_array = type { %struct._zend_refcounted_h, %union.anon.0, i32, %union.anon.1, i32, i32, i32, i32, i64, ptr }
%struct._zend_refcounted_h = type { i32, %union.anon }
%union.anon = type { i32 }
%union.anon.0 = type { i32 }
%union.anon.1 = type { ptr }
%struct._zval_struct = type { %union._zend_value, %union.anon.4, %union.anon.7 }
%union._zend_value = type { i64 }
%union.anon.4 = type { i32 }
%union.anon.7 = type { i32 }
%struct._zend_op_array = type { i8, [3 x i8], i32, ptr, ptr, ptr, i32, i32, ptr, ptr, ptr, ptr, i32, i32, i32, i32, ptr, ptr, ptr, ptr, ptr, i32, i32, ptr, ptr, ptr, i32, i32, i32, i32, ptr, ptr, [6 x ptr] }
%struct._zend_persistent_script = type { %struct._zend_script, i64, i32, i64, i8, i8, i8, i32, i32, ptr, ptr, ptr, i64, %struct.zend_persistent_script_dynamic_members }
%struct._zend_script = type { ptr, %struct._zend_op_array, %struct._zend_array, %struct._zend_array }
%struct.zend_persistent_script_dynamic_members = type { i64, i64, i32, i64 }
%struct._zend_accel_shared_globals = type { i64, i64, i64, i64, i64, i64, %struct._zend_accel_hash, i64, i64, i64, i64, i8, i8, i32, i8, i8, i8, ptr, ptr, [2 x i32], ptr, ptr, %struct._zend_string_table }
%struct._zend_accel_hash = type { ptr, ptr, i32, i32, i32 }
%struct._zend_string_table = type { i32, i32, ptr, ptr, ptr, ptr }
%struct._zend_ast = type { i16, i16, i32, [1 x ptr] }
%struct._zend_ast_zval = type { i16, i16, %struct._zval_struct }
%struct._zend_ast_list = type { i16, i16, i32, i32, [1 x ptr] }

@accel_shared_globals = external global ptr, align 8

; Function Attrs: nounwind uwtable
define internal void @zend_file_cache_serialize_ast(ptr noundef %0, ptr noundef %1, ptr noundef %2, ptr noundef %3) #0 {
  %5 = alloca ptr, align 8
  %6 = alloca ptr, align 8
  %7 = alloca ptr, align 8
  %8 = alloca ptr, align 8
  %9 = alloca ptr, align 8
  %10 = alloca ptr, align 8
  %11 = alloca ptr, align 8
  %12 = alloca i32, align 4
  %13 = alloca ptr, align 8
  %14 = alloca ptr, align 8
  %15 = alloca i32, align 4
  store ptr %0, ptr %8, align 8
  store ptr %1, ptr %9, align 8
  store ptr %2, ptr %10, align 8
  store ptr %3, ptr %11, align 8
  %16 = load ptr, ptr %8, align 8
  %17 = getelementptr inbounds %struct._zend_ast, ptr %16, i32 0, i32 0
  %18 = load i16, ptr %17, align 8
  %19 = zext i16 %18 to i32
  %20 = icmp eq i32 %19, 64
  br i1 %20, label %27, label %21

21:                                               ; preds = %4
  %22 = load ptr, ptr %8, align 8
  %23 = getelementptr inbounds %struct._zend_ast, ptr %22, i32 0, i32 0
  %24 = load i16, ptr %23, align 8
  %25 = zext i16 %24 to i32
  %26 = icmp eq i32 %25, 65
  br i1 %26, label %27, label %33

27:                                               ; preds = %21, %4
  %28 = load ptr, ptr %8, align 8
  %29 = getelementptr inbounds %struct._zend_ast_zval, ptr %28, i32 0, i32 2
  %30 = load ptr, ptr %9, align 8
  %31 = load ptr, ptr %10, align 8
  %32 = load ptr, ptr %11, align 8
  call void @zend_file_cache_serialize_zval(ptr noundef %29, ptr noundef %30, ptr noundef %31, ptr noundef %32)
  br label %329

33:                                               ; preds = %21
  %34 = load ptr, ptr %8, align 8
  store ptr %34, ptr %7, align 8
  %35 = load ptr, ptr %7, align 8
  %36 = load i16, ptr %35, align 8
  %37 = zext i16 %36 to i32
  %38 = ashr i32 %37, 7
  %39 = and i32 %38, 1
  %40 = icmp ne i32 %39, 0
  br i1 %40, label %41, label %184

41:                                               ; preds = %33
  %42 = load ptr, ptr %8, align 8
  store ptr %42, ptr %6, align 8
  %43 = load ptr, ptr %6, align 8
  store ptr %43, ptr %14, align 8
  store i32 0, ptr %12, align 4
  br label %44

44:                                               ; preds = %180, %41
  %45 = load i32, ptr %12, align 4
  %46 = load ptr, ptr %14, align 8
  %47 = getelementptr inbounds %struct._zend_ast_list, ptr %46, i32 0, i32 3
  %48 = load i32, ptr %47, align 8
  %49 = icmp ult i32 %45, %48
  br i1 %49, label %50, label %183

50:                                               ; preds = %44
  %51 = load ptr, ptr %14, align 8
  %52 = getelementptr inbounds %struct._zend_ast_list, ptr %51, i32 0, i32 4
  %53 = load i32, ptr %12, align 4
  %54 = zext i32 %53 to i64
  %55 = getelementptr inbounds [1 x ptr], ptr %52, i64 0, i64 %54
  %56 = load ptr, ptr %55, align 8
  %57 = icmp ne ptr %56, null
  br i1 %57, label %58, label %179

58:                                               ; preds = %50
  %59 = load ptr, ptr %14, align 8
  %60 = getelementptr inbounds %struct._zend_ast_list, ptr %59, i32 0, i32 4
  %61 = load i32, ptr %12, align 4
  %62 = zext i32 %61 to i64
  %63 = getelementptr inbounds [1 x ptr], ptr %60, i64 0, i64 %62
  %64 = load ptr, ptr %63, align 8
  %65 = load ptr, ptr %9, align 8
  %66 = getelementptr inbounds %struct._zend_persistent_script, ptr %65, i32 0, i32 12
  %67 = load i64, ptr %66, align 8
  %68 = inttoptr i64 %67 to ptr
  %69 = icmp ule ptr %64, %68
  br i1 %69, label %179, label %70

70:                                               ; preds = %58
  br label %71

71:                                               ; preds = %70
  %72 = load ptr, ptr %14, align 8
  %73 = getelementptr inbounds %struct._zend_ast_list, ptr %72, i32 0, i32 4
  %74 = load i32, ptr %12, align 4
  %75 = zext i32 %74 to i64
  %76 = getelementptr inbounds [1 x ptr], ptr %73, i64 0, i64 %75
  %77 = load ptr, ptr %76, align 8
  %78 = icmp ne ptr %77, null
  br i1 %78, label %79, label %151

79:                                               ; preds = %71
  %80 = load ptr, ptr %14, align 8
  %81 = getelementptr inbounds %struct._zend_ast_list, ptr %80, i32 0, i32 4
  %82 = load i32, ptr %12, align 4
  %83 = zext i32 %82 to i64
  %84 = getelementptr inbounds [1 x ptr], ptr %81, i64 0, i64 %83
  %85 = load ptr, ptr %84, align 8
  %86 = load ptr, ptr %9, align 8
  %87 = getelementptr inbounds %struct._zend_persistent_script, ptr %86, i32 0, i32 11
  %88 = load ptr, ptr %87, align 8
  %89 = icmp uge ptr %85, %88
  br i1 %89, label %90, label %105

90:                                               ; preds = %79
  %91 = load ptr, ptr %14, align 8
  %92 = getelementptr inbounds %struct._zend_ast_list, ptr %91, i32 0, i32 4
  %93 = load i32, ptr %12, align 4
  %94 = zext i32 %93 to i64
  %95 = getelementptr inbounds [1 x ptr], ptr %92, i64 0, i64 %94
  %96 = load ptr, ptr %95, align 8
  %97 = load ptr, ptr %9, align 8
  %98 = getelementptr inbounds %struct._zend_persistent_script, ptr %97, i32 0, i32 11
  %99 = load ptr, ptr %98, align 8
  %100 = load ptr, ptr %9, align 8
  %101 = getelementptr inbounds %struct._zend_persistent_script, ptr %100, i32 0, i32 12
  %102 = load i64, ptr %101, align 8
  %103 = getelementptr inbounds i8, ptr %99, i64 %102
  %104 = icmp ule ptr %96, %103
  br i1 %104, label %131, label %105

105:                                              ; preds = %90, %79
  %106 = load ptr, ptr %14, align 8
  %107 = getelementptr inbounds %struct._zend_ast_list, ptr %106, i32 0, i32 4
  %108 = load i32, ptr %12, align 4
  %109 = zext i32 %108 to i64
  %110 = getelementptr inbounds [1 x ptr], ptr %107, i64 0, i64 %109
  %111 = load ptr, ptr %110, align 8
  %112 = load ptr, ptr @accel_shared_globals, align 8
  %113 = getelementptr inbounds %struct._zend_accel_shared_globals, ptr %112, i32 0, i32 22
  %114 = getelementptr inbounds %struct._zend_string_table, ptr %113, i32 0, i32 2
  %115 = load ptr, ptr %114, align 8
  %116 = icmp uge ptr %111, %115
  br i1 %116, label %117, label %129

117:                                              ; preds = %105
  %118 = load ptr, ptr %14, align 8
  %119 = getelementptr inbounds %struct._zend_ast_list, ptr %118, i32 0, i32 4
  %120 = load i32, ptr %12, align 4
  %121 = zext i32 %120 to i64
  %122 = getelementptr inbounds [1 x ptr], ptr %119, i64 0, i64 %121
  %123 = load ptr, ptr %122, align 8
  %124 = load ptr, ptr @accel_shared_globals, align 8
  %125 = getelementptr inbounds %struct._zend_accel_shared_globals, ptr %124, i32 0, i32 22
  %126 = getelementptr inbounds %struct._zend_string_table, ptr %125, i32 0, i32 3
  %127 = load ptr, ptr %126, align 8
  %128 = icmp ult ptr %123, %127
  br label %129

129:                                              ; preds = %117, %105
  %130 = phi i1 [ false, %105 ], [ %128, %117 ]
  br label %131

131:                                              ; preds = %129, %90
  %132 = phi i1 [ true, %90 ], [ %130, %129 ]
  call void @llvm.assume(i1 %132)
  %133 = load ptr, ptr %14, align 8
  %134 = getelementptr inbounds %struct._zend_ast_list, ptr %133, i32 0, i32 4
  %135 = load i32, ptr %12, align 4
  %136 = zext i32 %135 to i64
  %137 = getelementptr inbounds [1 x ptr], ptr %134, i64 0, i64 %136
  %138 = load ptr, ptr %137, align 8
  %139 = load ptr, ptr %9, align 8
  %140 = getelementptr inbounds %struct._zend_persistent_script, ptr %139, i32 0, i32 11
  %141 = load ptr, ptr %140, align 8
  %142 = ptrtoint ptr %138 to i64
  %143 = ptrtoint ptr %141 to i64
  %144 = sub i64 %142, %143
  %145 = inttoptr i64 %144 to ptr
  %146 = load ptr, ptr %14, align 8
  %147 = getelementptr inbounds %struct._zend_ast_list, ptr %146, i32 0, i32 4
  %148 = load i32, ptr %12, align 4
  %149 = zext i32 %148 to i64
  %150 = getelementptr inbounds [1 x ptr], ptr %147, i64 0, i64 %149
  store ptr %145, ptr %150, align 8
  br label %151

151:                                              ; preds = %131, %71
  br label %152

152:                                              ; preds = %151
  %153 = load ptr, ptr %14, align 8
  %154 = getelementptr inbounds %struct._zend_ast_list, ptr %153, i32 0, i32 4
  %155 = load i32, ptr %12, align 4
  %156 = zext i32 %155 to i64
  %157 = getelementptr inbounds [1 x ptr], ptr %154, i64 0, i64 %156
  %158 = load ptr, ptr %157, align 8
  store ptr %158, ptr %13, align 8
  br label %159

159:                                              ; preds = %152
  %160 = load ptr, ptr %13, align 8
  %161 = icmp ne ptr %160, null
  br i1 %161, label %162, label %173

162:                                              ; preds = %159
  %163 = load ptr, ptr %13, align 8
  %164 = load ptr, ptr %9, align 8
  %165 = getelementptr inbounds %struct._zend_persistent_script, ptr %164, i32 0, i32 12
  %166 = load i64, ptr %165, align 8
  %167 = inttoptr i64 %166 to ptr
  %168 = icmp ule ptr %163, %167
  call void @llvm.assume(i1 %168)
  %169 = load ptr, ptr %11, align 8
  %170 = load ptr, ptr %13, align 8
  %171 = ptrtoint ptr %170 to i64
  %172 = getelementptr inbounds i8, ptr %169, i64 %171
  store ptr %172, ptr %13, align 8
  br label %173

173:                                              ; preds = %162, %159
  br label %174

174:                                              ; preds = %173
  %175 = load ptr, ptr %13, align 8
  %176 = load ptr, ptr %9, align 8
  %177 = load ptr, ptr %10, align 8
  %178 = load ptr, ptr %11, align 8
  call void @zend_file_cache_serialize_ast(ptr noundef %175, ptr noundef %176, ptr noundef %177, ptr noundef %178)
  br label %179

179:                                              ; preds = %174, %58, %50
  br label %180

180:                                              ; preds = %179
  %181 = load i32, ptr %12, align 4
  %182 = add i32 %181, 1
  store i32 %182, ptr %12, align 4
  br label %44

183:                                              ; preds = %44
  br label %328

184:                                              ; preds = %33
  %185 = load ptr, ptr %8, align 8
  store ptr %185, ptr %5, align 8
  %186 = load ptr, ptr %5, align 8
  %187 = load i16, ptr %186, align 8
  %188 = zext i16 %187 to i32
  %189 = ashr i32 %188, 8
  store i32 %189, ptr %15, align 4
  store i32 0, ptr %12, align 4
  br label %190

190:                                              ; preds = %324, %184
  %191 = load i32, ptr %12, align 4
  %192 = load i32, ptr %15, align 4
  %193 = icmp ult i32 %191, %192
  br i1 %193, label %194, label %327

194:                                              ; preds = %190
  %195 = load ptr, ptr %8, align 8
  %196 = getelementptr inbounds %struct._zend_ast, ptr %195, i32 0, i32 3
  %197 = load i32, ptr %12, align 4
  %198 = zext i32 %197 to i64
  %199 = getelementptr inbounds [1 x ptr], ptr %196, i64 0, i64 %198
  %200 = load ptr, ptr %199, align 8
  %201 = icmp ne ptr %200, null
  br i1 %201, label %202, label %323

202:                                              ; preds = %194
  %203 = load ptr, ptr %8, align 8
  %204 = getelementptr inbounds %struct._zend_ast, ptr %203, i32 0, i32 3
  %205 = load i32, ptr %12, align 4
  %206 = zext i32 %205 to i64
  %207 = getelementptr inbounds [1 x ptr], ptr %204, i64 0, i64 %206
  %208 = load ptr, ptr %207, align 8
  %209 = load ptr, ptr %9, align 8
  %210 = getelementptr inbounds %struct._zend_persistent_script, ptr %209, i32 0, i32 12
  %211 = load i64, ptr %210, align 8
  %212 = inttoptr i64 %211 to ptr
  %213 = icmp ule ptr %208, %212
  br i1 %213, label %323, label %214

214:                                              ; preds = %202
  br label %215

215:                                              ; preds = %214
  %216 = load ptr, ptr %8, align 8
  %217 = getelementptr inbounds %struct._zend_ast, ptr %216, i32 0, i32 3
  %218 = load i32, ptr %12, align 4
  %219 = zext i32 %218 to i64
  %220 = getelementptr inbounds [1 x ptr], ptr %217, i64 0, i64 %219
  %221 = load ptr, ptr %220, align 8
  %222 = icmp ne ptr %221, null
  br i1 %222, label %223, label %295

223:                                              ; preds = %215
  %224 = load ptr, ptr %8, align 8
  %225 = getelementptr inbounds %struct._zend_ast, ptr %224, i32 0, i32 3
  %226 = load i32, ptr %12, align 4
  %227 = zext i32 %226 to i64
  %228 = getelementptr inbounds [1 x ptr], ptr %225, i64 0, i64 %227
  %229 = load ptr, ptr %228, align 8
  %230 = load ptr, ptr %9, align 8
  %231 = getelementptr inbounds %struct._zend_persistent_script, ptr %230, i32 0, i32 11
  %232 = load ptr, ptr %231, align 8
  %233 = icmp uge ptr %229, %232
  br i1 %233, label %234, label %249

234:                                              ; preds = %223
  %235 = load ptr, ptr %8, align 8
  %236 = getelementptr inbounds %struct._zend_ast, ptr %235, i32 0, i32 3
  %237 = load i32, ptr %12, align 4
  %238 = zext i32 %237 to i64
  %239 = getelementptr inbounds [1 x ptr], ptr %236, i64 0, i64 %238
  %240 = load ptr, ptr %239, align 8
  %241 = load ptr, ptr %9, align 8
  %242 = getelementptr inbounds %struct._zend_persistent_script, ptr %241, i32 0, i32 11
  %243 = load ptr, ptr %242, align 8
  %244 = load ptr, ptr %9, align 8
  %245 = getelementptr inbounds %struct._zend_persistent_script, ptr %244, i32 0, i32 12
  %246 = load i64, ptr %245, align 8
  %247 = getelementptr inbounds i8, ptr %243, i64 %246
  %248 = icmp ule ptr %240, %247
  br i1 %248, label %275, label %249

249:                                              ; preds = %234, %223
  %250 = load ptr, ptr %8, align 8
  %251 = getelementptr inbounds %struct._zend_ast, ptr %250, i32 0, i32 3
  %252 = load i32, ptr %12, align 4
  %253 = zext i32 %252 to i64
  %254 = getelementptr inbounds [1 x ptr], ptr %251, i64 0, i64 %253
  %255 = load ptr, ptr %254, align 8
  %256 = load ptr, ptr @accel_shared_globals, align 8
  %257 = getelementptr inbounds %struct._zend_accel_shared_globals, ptr %256, i32 0, i32 22
  %258 = getelementptr inbounds %struct._zend_string_table, ptr %257, i32 0, i32 2
  %259 = load ptr, ptr %258, align 8
  %260 = icmp uge ptr %255, %259
  br i1 %260, label %261, label %273

261:                                              ; preds = %249
  %262 = load ptr, ptr %8, align 8
  %263 = getelementptr inbounds %struct._zend_ast, ptr %262, i32 0, i32 3
  %264 = load i32, ptr %12, align 4
  %265 = zext i32 %264 to i64
  %266 = getelementptr inbounds [1 x ptr], ptr %263, i64 0, i64 %265
  %267 = load ptr, ptr %266, align 8
  %268 = load ptr, ptr @accel_shared_globals, align 8
  %269 = getelementptr inbounds %struct._zend_accel_shared_globals, ptr %268, i32 0, i32 22
  %270 = getelementptr inbounds %struct._zend_string_table, ptr %269, i32 0, i32 3
  %271 = load ptr, ptr %270, align 8
  %272 = icmp ult ptr %267, %271
  br label %273

273:                                              ; preds = %261, %249
  %274 = phi i1 [ false, %249 ], [ %272, %261 ]
  br label %275

275:                                              ; preds = %273, %234
  %276 = phi i1 [ true, %234 ], [ %274, %273 ]
  call void @llvm.assume(i1 %276)
  %277 = load ptr, ptr %8, align 8
  %278 = getelementptr inbounds %struct._zend_ast, ptr %277, i32 0, i32 3
  %279 = load i32, ptr %12, align 4
  %280 = zext i32 %279 to i64
  %281 = getelementptr inbounds [1 x ptr], ptr %278, i64 0, i64 %280
  %282 = load ptr, ptr %281, align 8
  %283 = load ptr, ptr %9, align 8
  %284 = getelementptr inbounds %struct._zend_persistent_script, ptr %283, i32 0, i32 11
  %285 = load ptr, ptr %284, align 8
  %286 = ptrtoint ptr %282 to i64
  %287 = ptrtoint ptr %285 to i64
  %288 = sub i64 %286, %287
  %289 = inttoptr i64 %288 to ptr
  %290 = load ptr, ptr %8, align 8
  %291 = getelementptr inbounds %struct._zend_ast, ptr %290, i32 0, i32 3
  %292 = load i32, ptr %12, align 4
  %293 = zext i32 %292 to i64
  %294 = getelementptr inbounds [1 x ptr], ptr %291, i64 0, i64 %293
  store ptr %289, ptr %294, align 8
  br label %295

295:                                              ; preds = %275, %215
  br label %296

296:                                              ; preds = %295
  %297 = load ptr, ptr %8, align 8
  %298 = getelementptr inbounds %struct._zend_ast, ptr %297, i32 0, i32 3
  %299 = load i32, ptr %12, align 4
  %300 = zext i32 %299 to i64
  %301 = getelementptr inbounds [1 x ptr], ptr %298, i64 0, i64 %300
  %302 = load ptr, ptr %301, align 8
  store ptr %302, ptr %13, align 8
  br label %303

303:                                              ; preds = %296
  %304 = load ptr, ptr %13, align 8
  %305 = icmp ne ptr %304, null
  br i1 %305, label %306, label %317

306:                                              ; preds = %303
  %307 = load ptr, ptr %13, align 8
  %308 = load ptr, ptr %9, align 8
  %309 = getelementptr inbounds %struct._zend_persistent_script, ptr %308, i32 0, i32 12
  %310 = load i64, ptr %309, align 8
  %311 = inttoptr i64 %310 to ptr
  %312 = icmp ule ptr %307, %311
  call void @llvm.assume(i1 %312)
  %313 = load ptr, ptr %11, align 8
  %314 = load ptr, ptr %13, align 8
  %315 = ptrtoint ptr %314 to i64
  %316 = getelementptr inbounds i8, ptr %313, i64 %315
  store ptr %316, ptr %13, align 8
  br label %317

317:                                              ; preds = %306, %303
  br label %318

318:                                              ; preds = %317
  %319 = load ptr, ptr %13, align 8
  %320 = load ptr, ptr %9, align 8
  %321 = load ptr, ptr %10, align 8
  %322 = load ptr, ptr %11, align 8
  call void @zend_file_cache_serialize_ast(ptr noundef %319, ptr noundef %320, ptr noundef %321, ptr noundef %322)
  br label %323

323:                                              ; preds = %318, %202, %194
  br label %324

324:                                              ; preds = %323
  %325 = load i32, ptr %12, align 4
  %326 = add i32 %325, 1
  store i32 %326, ptr %12, align 4
  br label %190

327:                                              ; preds = %190
  br label %328

328:                                              ; preds = %327, %183
  br label %329

329:                                              ; preds = %328, %27
  ret void
}