; Function Attrs: nounwind uwtable
define internal fastcc void @zend_file_cache_serialize_ast(ptr nocapture noundef %0, ptr noundef %1, ptr noundef %2, ptr noundef %3) unnamed_addr #0 {
  %5 = load i16, ptr %0, align 8
  %6 = zext i16 %5 to i32
  %7 = and i16 %5, -2
  %switch = icmp eq i16 %7, 64
  br i1 %switch, label %8, label %10

8:                                                ; preds = %4
  %9 = getelementptr inbounds i8, ptr %0, i64 8
  tail call void @zend_file_cache_serialize_zval(ptr noundef nonnull %9, ptr noundef %1, ptr noundef %2, ptr noundef %3)
  br label %.loopexit

10:                                               ; preds = %4
  %11 = and i32 %6, 128
  %.not = icmp eq i32 %11, 0
  br i1 %.not, label %46, label %.preheader

.preheader:                                       ; preds = %10
  %12 = getelementptr inbounds i8, ptr %0, i64 8
  %13 = load i32, ptr %12, align 8
  %.not116 = icmp eq i32 %13, 0
  br i1 %.not116, label %.loopexit, label %.lr.ph

.lr.ph:                                           ; preds = %.preheader
  %14 = getelementptr inbounds i8, ptr %0, i64 16
  %15 = getelementptr inbounds i8, ptr %1, i64 424
  %16 = getelementptr inbounds i8, ptr %1, i64 416
  br label %17

17:                                               ; preds = %.lr.ph, %42
  %18 = phi i32 [ %13, %.lr.ph ], [ %43, %42 ]
  %indvars.iv = phi i64 [ 0, %.lr.ph ], [ %indvars.iv.next, %42 ]
  %19 = getelementptr inbounds [1 x ptr], ptr %14, i64 0, i64 %indvars.iv
  %20 = load ptr, ptr %19, align 8
  %.not104 = icmp eq ptr %20, null
  br i1 %.not104, label %42, label %21

21:                                               ; preds = %17
  %22 = load i64, ptr %15, align 8
  %23 = inttoptr i64 %22 to ptr
  %.not105 = icmp ugt ptr %20, %23
  br i1 %.not105, label %24, label %42

24:                                               ; preds = %21
  %25 = load ptr, ptr %16, align 8
  %.not106 = icmp ult ptr %20, %25
  %26 = getelementptr inbounds i8, ptr %25, i64 %22
  %.not107 = icmp ugt ptr %20, %26
  %or.cond = select i1 %.not106, i1 true, i1 %.not107
  br i1 %or.cond, label %27, label %35

27:                                               ; preds = %24
  %28 = load ptr, ptr @accel_shared_globals, align 8
  %29 = getelementptr inbounds i8, ptr %28, i64 176
  %30 = load ptr, ptr %29, align 8
  %.not108 = icmp ult ptr %20, %30
  br i1 %.not108, label %35, label %31

31:                                               ; preds = %27
  %32 = getelementptr inbounds i8, ptr %28, i64 184
  %33 = load ptr, ptr %32, align 8
  %34 = icmp ult ptr %20, %33
  br label %35

35:                                               ; preds = %24, %27, %31
  %36 = phi i1 [ false, %27 ], [ %34, %31 ], [ true, %24 ]
  tail call void @llvm.assume(i1 %36)
  %37 = ptrtoint ptr %20 to i64
  %38 = ptrtoint ptr %25 to i64
  %39 = sub i64 %37, %38
  %40 = inttoptr i64 %39 to ptr
  store ptr %40, ptr %19, align 8
  %.not109 = icmp eq ptr %20, %25
  %41 = getelementptr inbounds i8, ptr %3, i64 %39
  %spec.select = select i1 %.not109, ptr null, ptr %41
  tail call fastcc void @zend_file_cache_serialize_ast(ptr noundef %spec.select, ptr noundef nonnull %1, ptr noundef %2, ptr noundef %3)
  %.pre = load i32, ptr %12, align 8
  br label %42

42:                                               ; preds = %17, %21, %35
  %43 = phi i32 [ %18, %17 ], [ %18, %21 ], [ %.pre, %35 ]
  %indvars.iv.next = add nuw nsw i64 %indvars.iv, 1
  %44 = zext i32 %43 to i64
  %45 = icmp ult i64 %indvars.iv.next, %44
  br i1 %45, label %17, label %.loopexit

46:                                               ; preds = %10
  %.not117 = icmp ult i16 %5, 256
  br i1 %.not117, label %.loopexit, label %.lr.ph115

.lr.ph115:                                        ; preds = %46
  %47 = lshr i32 %6, 8
  %48 = getelementptr inbounds i8, ptr %0, i64 8
  %49 = getelementptr inbounds i8, ptr %1, i64 424
  %50 = getelementptr inbounds i8, ptr %1, i64 416
  %wide.trip.count = zext nneg i32 %47 to i64
  br label %51

51:                                               ; preds = %.lr.ph115, %75
  %indvars.iv120 = phi i64 [ 0, %.lr.ph115 ], [ %indvars.iv.next121, %75 ]
  %52 = getelementptr inbounds [1 x ptr], ptr %48, i64 0, i64 %indvars.iv120
  %53 = load ptr, ptr %52, align 8
  %.not98 = icmp eq ptr %53, null
  br i1 %.not98, label %75, label %54

54:                                               ; preds = %51
  %55 = load i64, ptr %49, align 8
  %56 = inttoptr i64 %55 to ptr
  %.not99 = icmp ugt ptr %53, %56
  br i1 %.not99, label %57, label %75

57:                                               ; preds = %54
  %58 = load ptr, ptr %50, align 8
  %.not100 = icmp ult ptr %53, %58
  %59 = getelementptr inbounds i8, ptr %58, i64 %55
  %.not101 = icmp ugt ptr %53, %59
  %or.cond110 = select i1 %.not100, i1 true, i1 %.not101
  br i1 %or.cond110, label %60, label %68

60:                                               ; preds = %57
  %61 = load ptr, ptr @accel_shared_globals, align 8
  %62 = getelementptr inbounds i8, ptr %61, i64 176
  %63 = load ptr, ptr %62, align 8
  %.not102 = icmp ult ptr %53, %63
  br i1 %.not102, label %68, label %64

64:                                               ; preds = %60
  %65 = getelementptr inbounds i8, ptr %61, i64 184
  %66 = load ptr, ptr %65, align 8
  %67 = icmp ult ptr %53, %66
  br label %68

68:                                               ; preds = %57, %60, %64
  %69 = phi i1 [ false, %60 ], [ %67, %64 ], [ true, %57 ]
  tail call void @llvm.assume(i1 %69)
  %70 = ptrtoint ptr %53 to i64
  %71 = ptrtoint ptr %58 to i64
  %72 = sub i64 %70, %71
  %73 = inttoptr i64 %72 to ptr
  store ptr %73, ptr %52, align 8
  %.not103 = icmp eq ptr %53, %58
  %74 = getelementptr inbounds i8, ptr %3, i64 %72
  %spec.select111 = select i1 %.not103, ptr null, ptr %74
  tail call fastcc void @zend_file_cache_serialize_ast(ptr noundef %spec.select111, ptr noundef nonnull %1, ptr noundef %2, ptr noundef %3)
  br label %75

75:                                               ; preds = %51, %54, %68
  %indvars.iv.next121 = add nuw nsw i64 %indvars.iv120, 1
  %exitcond.not = icmp eq i64 %indvars.iv.next121, %wide.trip.count
  br i1 %exitcond.not, label %.loopexit, label %51

.loopexit:                                        ; preds = %42, %75, %.preheader, %46, %8
  ret void
}